; Function Attrs: nounwind sspstrong uwtable
define internal fastcc range(i64 -2147483648, -9223372036854775808) i64 @cvtnum(ptr noundef %0) unnamed_addr #0 {
  %2 = alloca i64, align 8
  call void @llvm.lifetime.start.p0(i64 8, ptr nonnull %2) #26
  store i64 0, ptr %2, align 8, !annotation !8
  %3 = call i32 @qemu_strtosz(ptr noundef %0, ptr noundef null, ptr noundef nonnull %2) #26
  %4 = icmp slt i32 %3, 0
  %5 = sext i32 %3 to i64
  %6 = load i64, ptr %2, align 8
  %7 = icmp slt i64 %6, 0
  %. = select i1 %7, i64 -34, i64 %6
  %.0 = select i1 %4, i64 %5, i64 %.
  call void @llvm.lifetime.end.p0(i64 8, ptr nonnull %2) #26
  ret i64 %.0
}